target datalayout = "e-m:e-p270:32:32-p271:32:32-p272:64:64-i64:64-i128:128-f80:128-n8:16:32:64-S128"
target triple = "x86_64-unknown-linux-gnu"

%"class.hermes::Identifier" = type { ptr }
%"class.llvh::SMLoc" = type { ptr }
%"struct.hermes::irgen::ESTreeIRGen::MemberExpressionResult" = type { ptr, ptr }
%"class.llvh::SMRange" = type { %"class.llvh::SMLoc", %"class.llvh::SMLoc" }
%"class.hermes::irgen::ESTreeIRGen" = type { ptr, %"class.hermes::IRBuilder", %"class.hermes::IRInstrument", ptr, ptr, ptr, ptr, %"class.hermes::ScopedHashTable", %"class.std::shared_ptr", %"class.hermes::Identifier", %"class.hermes::Identifier", %"class.hermes::Identifier", ptr, ptr, %"class.llvh::DenseMap.0" }
%"class.hermes::IRBuilder" = type { ptr, %"class.llvh::ilist_iterator", ptr, %"class.llvh::SMLoc", ptr }
%"class.llvh::ilist_iterator" = type { ptr }
%"class.hermes::IRInstrument" = type { i8 }
%"class.hermes::ScopedHashTable" = type { %"class.llvh::DenseMap", ptr }
%"class.llvh::DenseMap" = type <{ ptr, i32, i32, i32, [4 x i8] }>
%"class.std::shared_ptr" = type { %"class.std::__shared_ptr" }
%"class.std::__shared_ptr" = type { ptr, %"class.std::__shared_count" }
%"class.std::__shared_count" = type { ptr }
%"class.llvh::DenseMap.0" = type <{ ptr, i32, i32, i32, [4 x i8] }>
%"class.hermes::ESTree::Node" = type { %"class.llvh::ilist_node", i32, i32, %"class.llvh::SMRange", %"class.llvh::SMLoc" }
%"class.llvh::ilist_node" = type { %"class.llvh::ilist_node_impl" }
%"class.llvh::ilist_node_impl" = type { %"class.llvh::ilist_node_base" }
%"class.llvh::ilist_node_base" = type { ptr, ptr }
%"class.hermes::ESTree::MemberExpressionNode" = type <{ %"class.hermes::ESTree::MemberExpressionLikeNode", ptr, ptr, i8, [7 x i8] }>
%"class.hermes::ESTree::MemberExpressionLikeNode" = type { %"class.hermes::ESTree::Node" }

; Function Attrs: mustprogress nounwind uwtable
define linkonce_odr hidden void @_ZN6hermes10IdentifierC2Ev(ptr noundef nonnull align 8 dereferenceable(8) %this) unnamed_addr #0 comdat align 2 {
entry:
  %this.addr = alloca ptr, align 8
  store ptr %this, ptr %this.addr, align 8
  %this1 = load ptr, ptr %this.addr, align 8
  %ptr_ = getelementptr inbounds %"class.hermes::Identifier", ptr %this1, i32 0, i32 0
  store ptr null, ptr %ptr_, align 8
  ret void
}

; Function Attrs: mustprogress nounwind uwtable
define hidden { ptr, ptr } @_ZN6hermes5irgen11ESTreeIRGen19genMemberExpressionEPNS_6ESTree20MemberExpressionNodeENS1_25MemberExpressionOperationE(ptr noundef nonnull align 8 dereferenceable(200) %this, ptr noundef %mem, i32 noundef %op) #0 align 2 {
entry:
  %retval = alloca %"struct.hermes::irgen::ESTreeIRGen::MemberExpressionResult", align 8
  %this.addr = alloca ptr, align 8
  %mem.addr = alloca ptr, align 8
  %op.addr = alloca i32, align 4
  %baseValue = alloca ptr, align 8
  %agg.tmp = alloca %"class.hermes::Identifier", align 8
  %prop = alloca ptr, align 8
  store ptr %this, ptr %this.addr, align 8
  store ptr %mem, ptr %mem.addr, align 8
  store i32 %op, ptr %op.addr, align 4
  %this1 = load ptr, ptr %this.addr, align 8
  %0 = load ptr, ptr %mem.addr, align 8
  %_object = getelementptr inbounds %"class.hermes::ESTree::MemberExpressionNode", ptr %0, i32 0, i32 1
  %1 = load ptr, ptr %_object, align 8
  call void @llvm.memset.p0.i64(ptr align 8 %agg.tmp, i8 0, i64 8, i1 false)
  call void @_ZN6hermes10IdentifierC2Ev(ptr noundef nonnull align 8 dereferenceable(8) %agg.tmp) #9
  %coerce.dive = getelementptr inbounds %"class.hermes::Identifier", ptr %agg.tmp, i32 0, i32 0
  %2 = load ptr, ptr %coerce.dive, align 8
  %call = call noundef ptr @_ZN6hermes5irgen11ESTreeIRGen13genExpressionEPNS_6ESTree4NodeENS_10IdentifierE(ptr noundef nonnull align 8 dereferenceable(200) %this1, ptr noundef %1, ptr %2)
  store ptr %call, ptr %baseValue, align 8
  %3 = load ptr, ptr %mem.addr, align 8
  %call2 = call noundef ptr @_ZN6hermes5irgen11ESTreeIRGen27genMemberExpressionPropertyEPNS_6ESTree24MemberExpressionLikeNodeE(ptr noundef nonnull align 8 dereferenceable(200) %this1, ptr noundef %3)
  store ptr %call2, ptr %prop, align 8
  %4 = load i32, ptr %op.addr, align 4
  switch i32 %4, label %sw.epilog [
    i32 0, label %sw.bb
    i32 1, label %sw.bb4
  ]

sw.bb:                                            ; preds = %entry
  %result = getelementptr inbounds %"struct.hermes::irgen::ESTreeIRGen::MemberExpressionResult", ptr %retval, i32 0, i32 0
  %Builder = getelementptr inbounds %"class.hermes::irgen::ESTreeIRGen", ptr %this1, i32 0, i32 1
  %5 = load ptr, ptr %baseValue, align 8
  %6 = load ptr, ptr %prop, align 8
  %call3 = call noundef ptr @_ZN6hermes9IRBuilder22createLoadPropertyInstEPNS_5ValueES2_(ptr noundef nonnull align 8 dereferenceable(40) %Builder, ptr noundef %5, ptr noundef %6)
  %7 = icmp eq ptr %call3, null
  br i1 %7, label %cast.end, label %cast.notnull

cast.notnull:                                     ; preds = %sw.bb
  %add.ptr = getelementptr inbounds i8, ptr %call3, i64 16
  br label %cast.end

cast.end:                                         ; preds = %cast.notnull, %sw.bb
  %cast.result = phi ptr [ %add.ptr, %cast.notnull ], [ null, %sw.bb ]
  store ptr %cast.result, ptr %result, align 8
  %base = getelementptr inbounds %"struct.hermes::irgen::ESTreeIRGen::MemberExpressionResult", ptr %retval, i32 0, i32 1
  %8 = load ptr, ptr %baseValue, align 8
  store ptr %8, ptr %base, align 8
  br label %return

sw.bb4:                                           ; preds = %entry
  %result5 = getelementptr inbounds %"struct.hermes::irgen::ESTreeIRGen::MemberExpressionResult", ptr %retval, i32 0, i32 0
  %Builder6 = getelementptr inbounds %"class.hermes::irgen::ESTreeIRGen", ptr %this1, i32 0, i32 1
  %9 = load ptr, ptr %baseValue, align 8
  %10 = load ptr, ptr %prop, align 8
  %call7 = call noundef ptr @_ZN6hermes9IRBuilder24createDeletePropertyInstEPNS_5ValueES2_(ptr noundef nonnull align 8 dereferenceable(40) %Builder6, ptr noundef %9, ptr noundef %10)
  %11 = icmp eq ptr %call7, null
  br i1 %11, label %cast.end10, label %cast.notnull8

cast.notnull8:                                    ; preds = %sw.bb4
  %add.ptr9 = getelementptr inbounds i8, ptr %call7, i64 16
  br label %cast.end10

cast.end10:                                       ; preds = %cast.notnull8, %sw.bb4
  %cast.result11 = phi ptr [ %add.ptr9, %cast.notnull8 ], [ null, %sw.bb4 ]
  store ptr %cast.result11, ptr %result5, align 8
  %base12 = getelementptr inbounds %"struct.hermes::irgen::ESTreeIRGen::MemberExpressionResult", ptr %retval, i32 0, i32 1
  %12 = load ptr, ptr %baseValue, align 8
  store ptr %12, ptr %base12, align 8
  br label %return

sw.epilog:                                        ; preds = %entry
  unreachable

return:                                           ; preds = %cast.end10, %cast.end
  %13 = load { ptr, ptr }, ptr %retval, align 8
  ret { ptr, ptr } %13
}